; Function Attrs: mustprogress nounwind uwtable
define hidden void @_ZN6AnyObjdlEPv(ptr noundef %0) local_unnamed_addr #0 align 2 {
  %2 = icmp eq ptr %0, null
  br i1 %2, label %4, label %3

3:                                                ; preds = %1
  tail call void @_ZN2os4freeEPv(ptr noundef nonnull %0) #3
  br label %4

4:                                                ; preds = %1, %3
  ret void
}